; Function Attrs: mustprogress nofree norecurse nosync nounwind willreturn memory(argmem: readwrite) uwtable
define internal noundef zeroext i1 @_ZNSt17_Function_handlerIFvPN7testing12_GLOBAL__N_113ExampleStructEEPS4_E10_M_managerERSt9_Any_dataRKS7_St18_Manager_operation(ptr nocapture noundef nonnull writeonly align 8 dereferenceable(16) %__dest, ptr noundef nonnull align 8 dereferenceable(16) %__source, i32 noundef %__op) #15 align 2 personality ptr @__gxx_personality_v0 {
entry:
  switch i32 %__op, label %sw.epilog [
    i32 0, label %sw.epilog.sink.split
    i32 1, label %sw.bb1
    i32 2, label %sw.bb4.i
  ]

sw.bb1:                                           ; preds = %entry
  br label %sw.epilog.sink.split

sw.bb4.i:                                         ; preds = %entry
  %call5.val.i = load ptr, ptr %__source, align 8
  br label %sw.epilog.sink.split

sw.epilog.sink.split:                             ; preds = %entry, %sw.bb1, %sw.bb4.i
  %call5.val.i.sink = phi ptr [ %call5.val.i, %sw.bb4.i ], [ %__source, %sw.bb1 ], [ @_ZTIPFvPN7testing12_GLOBAL__N_113ExampleStructEE, %entry ]
  store ptr %call5.val.i.sink, ptr %__dest, align 8
  br label %sw.epilog

sw.epilog:                                        ; preds = %sw.epilog.sink.split, %entry
  ret i1 false
}